target datalayout = "e-m:e-p270:32:32-p271:32:32-p272:64:64-i64:64-i128:128-f80:128-n8:16:32:64-S128"
target triple = "x86_64-unknown-linux-gnu"

%struct.ecc_set_type = type { i32, i32, ptr, ptr, ptr, ptr, ptr, ptr, ptr, ptr, i32, i32, i32 }

; Function Attrs: nounwind uwtable
define i32 @wc_ecc_get_curve_id_from_oid(ptr noundef %oid, i32 noundef %len) #0 {
entry:
  %retval = alloca i32, align 4
  %oid.addr = alloca ptr, align 8
  %len.addr = alloca i32, align 4
  %curve_idx = alloca i32, align 4
  store ptr %oid, ptr %oid.addr, align 8
  store i32 %len, ptr %len.addr, align 4
  %0 = load ptr, ptr %oid.addr, align 8
  %cmp = icmp eq ptr %0, null
  br i1 %cmp, label %if.then, label %if.end

if.then:                                          ; preds = %entry
  store i32 -173, ptr %retval, align 4
  br label %return

if.end:                                           ; preds = %entry
  %1 = load i32, ptr %len.addr, align 4
  %cmp1 = icmp eq i32 %1, 0
  br i1 %cmp1, label %if.then2, label %if.end3

if.then2:                                         ; preds = %if.end
  br label %do.body

do.body:                                          ; preds = %if.then2
  br label %do.end

do.end:                                           ; preds = %do.body
  store i32 -1, ptr %retval, align 4
  br label %return

if.end3:                                          ; preds = %if.end
  store i32 0, ptr %curve_idx, align 4
  br label %for.cond

for.cond:                                         ; preds = %for.inc, %if.end3
  %2 = load i32, ptr %curve_idx, align 4
  %idxprom = sext i32 %2 to i64
  %arrayidx = getelementptr inbounds [6 x %struct.ecc_set_type], ptr @ecc_sets, i64 0, i64 %idxprom
  %size = getelementptr inbounds %struct.ecc_set_type, ptr %arrayidx, i32 0, i32 0
  %3 = load i32, ptr %size, align 8
  %cmp4 = icmp ne i32 %3, 0
  br i1 %cmp4, label %for.body, label %for.end

for.body:                                         ; preds = %for.cond
  %4 = load i32, ptr %curve_idx, align 4
  %idxprom5 = sext i32 %4 to i64
  %arrayidx6 = getelementptr inbounds [6 x %struct.ecc_set_type], ptr @ecc_sets, i64 0, i64 %idxprom5
  %oid7 = getelementptr inbounds %struct.ecc_set_type, ptr %arrayidx6, i32 0, i32 9
  %5 = load ptr, ptr %oid7, align 8
  %tobool = icmp ne ptr %5, null
  br i1 %tobool, label %land.lhs.true, label %if.end18

land.lhs.true:                                    ; preds = %for.body
  %6 = load i32, ptr %curve_idx, align 4
  %idxprom8 = sext i32 %6 to i64
  %arrayidx9 = getelementptr inbounds [6 x %struct.ecc_set_type], ptr @ecc_sets, i64 0, i64 %idxprom8
  %oidSz = getelementptr inbounds %struct.ecc_set_type, ptr %arrayidx9, i32 0, i32 10
  %7 = load i32, ptr %oidSz, align 8
  %8 = load i32, ptr %len.addr, align 4
  %cmp10 = icmp eq i32 %7, %8
  br i1 %cmp10, label %land.lhs.true11, label %if.end18

land.lhs.true11:                                  ; preds = %land.lhs.true
  %9 = load i32, ptr %curve_idx, align 4
  %idxprom12 = sext i32 %9 to i64
  %arrayidx13 = getelementptr inbounds [6 x %struct.ecc_set_type], ptr @ecc_sets, i64 0, i64 %idxprom12
  %oid14 = getelementptr inbounds %struct.ecc_set_type, ptr %arrayidx13, i32 0, i32 9
  %10 = load ptr, ptr %oid14, align 8
  %11 = load ptr, ptr %oid.addr, align 8
  %12 = load i32, ptr %len.addr, align 4
  %conv = zext i32 %12 to i64
  %call = call i32 @memcmp(ptr noundef %10, ptr noundef %11, i64 noundef %conv) #6
  %cmp15 = icmp eq i32 %call, 0
  br i1 %cmp15, label %if.then17, label %if.end18

if.then17:                                        ; preds = %land.lhs.true11
  br label %for.end

if.end18:                                         ; preds = %land.lhs.true11, %land.lhs.true, %for.body
  br label %for.inc

for.inc:                                          ; preds = %if.end18
  %13 = load i32, ptr %curve_idx, align 4
  %inc = add nsw i32 %13, 1
  store i32 %inc, ptr %curve_idx, align 4
  br label %for.cond, !llvm.loop !16

for.end:                                          ; preds = %if.then17, %for.cond
  %14 = load i32, ptr %curve_idx, align 4
  %idxprom19 = sext i32 %14 to i64
  %arrayidx20 = getelementptr inbounds [6 x %struct.ecc_set_type], ptr @ecc_sets, i64 0, i64 %idxprom19
  %size21 = getelementptr inbounds %struct.ecc_set_type, ptr %arrayidx20, i32 0, i32 0
  %15 = load i32, ptr %size21, align 8
  %cmp22 = icmp eq i32 %15, 0
  br i1 %cmp22, label %if.then24, label %if.end27

if.then24:                                        ; preds = %for.end
  br label %do.body25

do.body25:                                        ; preds = %if.then24
  br label %do.end26

do.end26:                                         ; preds = %do.body25
  store i32 -1, ptr %retval, align 4
  br label %return

if.end27:                                         ; preds = %for.end
  %16 = load i32, ptr %curve_idx, align 4
  %idxprom28 = sext i32 %16 to i64
  %arrayidx29 = getelementptr inbounds [6 x %struct.ecc_set_type], ptr @ecc_sets, i64 0, i64 %idxprom28
  %id = getelementptr inbounds %struct.ecc_set_type, ptr %arrayidx29, i32 0, i32 1
  %17 = load i32, ptr %id, align 4
  store i32 %17, ptr %retval, align 4
  br label %return

return:                                           ; preds = %if.end27, %do.end26, %do.end, %if.then
  %18 = load i32, ptr %retval, align 4
  ret i32 %18
}