; Function Attrs: nofree nounwind memory(read, inaccessiblemem: none) uwtable
define i32 @wc_ecc_get_curve_id_from_oid(ptr noundef readonly %oid, i32 noundef %len) local_unnamed_addr #8 {
entry:
  %cmp = icmp eq ptr %oid, null
  br i1 %cmp, label %return, label %if.end

if.end:                                           ; preds = %entry
  %cmp1 = icmp eq i32 %len, 0
  br i1 %cmp1, label %return, label %for.cond.preheader

for.cond.preheader:                               ; preds = %if.end
  %conv = zext i32 %len to i64
  br label %for.body

for.body:                                         ; preds = %for.cond.preheader, %for.inc
  %indvars.iv = phi i64 [ 0, %for.cond.preheader ], [ %indvars.iv.next, %for.inc ]
  %arrayidx12 = phi ptr [ @ecc_sets, %for.cond.preheader ], [ %arrayidx, %for.inc ]
  %oid7 = getelementptr inbounds nuw i8, ptr %arrayidx12, i64 64
  %0 = load ptr, ptr %oid7, align 8
  %tobool.not = icmp eq ptr %0, null
  br i1 %tobool.not, label %for.inc, label %land.lhs.true

land.lhs.true:                                    ; preds = %for.body
  %oidSz = getelementptr inbounds nuw i8, ptr %arrayidx12, i64 72
  %1 = load i32, ptr %oidSz, align 8
  %cmp10 = icmp eq i32 %1, %len
  br i1 %cmp10, label %land.lhs.true11, label %for.inc

land.lhs.true11:                                  ; preds = %land.lhs.true
  %bcmp = tail call i32 @bcmp(ptr nonnull %0, ptr nonnull %oid, i64 %conv)
  %cmp15 = icmp eq i32 %bcmp, 0
  br i1 %cmp15, label %if.end27, label %for.inc

for.inc:                                          ; preds = %for.body, %land.lhs.true, %land.lhs.true11
  %indvars.iv.next = add nuw nsw i64 %indvars.iv, 1
  %arrayidx = getelementptr inbounds nuw [6 x %struct.ecc_set_type], ptr @ecc_sets, i64 0, i64 %indvars.iv.next
  %exitcond = icmp eq i64 %indvars.iv.next, 5
  br i1 %exitcond, label %return, label %for.body, !llvm.loop !15

if.end27:                                         ; preds = %land.lhs.true11
  %id = getelementptr inbounds nuw i8, ptr %arrayidx12, i64 4
  %2 = load i32, ptr %id, align 4
  br label %return

return:                                           ; preds = %for.inc, %if.end, %entry, %if.end27
  %retval.0 = phi i32 [ %2, %if.end27 ], [ -173, %entry ], [ -1, %if.end ], [ -1, %for.inc ]
  ret i32 %retval.0
}